target datalayout = "e-m:e-p270:32:32-p271:32:32-p272:64:64-i64:64-i128:128-f80:128-n8:16:32:64-S128"
target triple = "x86_64-pc-linux-gnu"

%"class.std::basic_ostream" = type { ptr, %"class.std::basic_ios" }
%"class.std::basic_ios" = type { %"class.std::ios_base", ptr, i8, i8, ptr, ptr, ptr, ptr }
%"class.std::ios_base" = type { ptr, i64, i64, i32, i32, i32, ptr, %"struct.std::ios_base::_Words", [8 x %"struct.std::ios_base::_Words"], i32, ptr, %"class.std::locale" }
%"struct.std::ios_base::_Words" = type { ptr, i64 }
%"class.std::locale" = type { ptr }
%"struct.std::_Rb_tree_header" = type { %"struct.std::_Rb_tree_node_base", i64 }
%"struct.std::_Rb_tree_node_base" = type { i32, ptr, ptr, ptr }
%"class.std::__cxx11::basic_string" = type { %"struct.std::__cxx11::basic_string<char>::_Alloc_hider", i64, %union.anon }
%"struct.std::__cxx11::basic_string<char>::_Alloc_hider" = type { ptr }
%union.anon = type { i64, [8 x i8] }
%"struct.std::pair" = type { i64, i64 }
%"class.std::vector.52" = type { %"struct.std::_Vector_base.53" }
%"struct.std::_Vector_base.53" = type { %"struct.std::_Vector_base<processor_t *, std::allocator<processor_t *>>::_Vector_impl" }
%"struct.std::_Vector_base<processor_t *, std::allocator<processor_t *>>::_Vector_impl" = type { %"struct.std::_Vector_base<processor_t *, std::allocator<processor_t *>>::_Vector_impl_data" }
%"struct.std::_Vector_base<processor_t *, std::allocator<processor_t *>>::_Vector_impl_data" = type { ptr, ptr, ptr }
%"class.std::vector" = type { %"struct.std::_Vector_base" }
%"struct.std::_Vector_base" = type { %"struct.std::_Vector_base<std::pair<unsigned long, abstract_mem_t *>, std::allocator<std::pair<unsigned long, abstract_mem_t *>>>::_Vector_impl" }
%"struct.std::_Vector_base<std::pair<unsigned long, abstract_mem_t *>, std::allocator<std::pair<unsigned long, abstract_mem_t *>>>::_Vector_impl" = type { %"struct.std::_Vector_base<std::pair<unsigned long, abstract_mem_t *>, std::allocator<std::pair<unsigned long, abstract_mem_t *>>>::_Vector_impl_data" }
%"struct.std::_Vector_base<std::pair<unsigned long, abstract_mem_t *>, std::allocator<std::pair<unsigned long, abstract_mem_t *>>>::_Vector_impl_data" = type { ptr, ptr, ptr }
%"class.std::__shared_count" = type { ptr }
%"class.std::shared_ptr" = type { %"class.std::__shared_ptr" }
%"class.std::__shared_ptr" = type { ptr, %"class.std::__shared_count" }
%"class.std::shared_ptr.67" = type { %"class.std::__shared_ptr.68" }
%"class.std::__shared_ptr.68" = type { ptr, %"class.std::__shared_count" }
%class.sim_t = type { %class.htif_t, %class.simif_t, %class.isa_parser_t, ptr, %"class.std::vector", %"class.std::vector.52", %"class.std::map.57", %"struct.std::pair", %"class.std::__cxx11::basic_string", %"class.std::__cxx11::basic_string", i8, %"class.std::vector.62", %"class.std::shared_ptr", %"class.std::shared_ptr.67", %class.bus_t, %class.log_file_t, ptr, ptr, %"class.std::basic_ostream", i64, i64, i8, i8, i8, ptr, %"class.std::optional", %class.debug_module_t }
%class.htif_t = type { %class.chunked_memif_t, i32, %class.memif_t, i64, i8, %"class.std::vector.9", %"class.std::vector.9", %"class.std::__cxx11::basic_string", i32, i64, i64, i64, i64, i32, i8, %class.device_list_t, %class.syscall_t, %class.bcd_t, %"class.std::vector.14", %"class.std::vector.9", %"class.std::vector.9", %"class.std::map" }
%class.chunked_memif_t = type { ptr }
%class.memif_t = type { ptr, ptr }
%class.device_list_t = type { %"class.std::vector.14", %class.null_device_t, i64 }
%class.null_device_t = type { %class.device_t }
%class.device_t = type { ptr, %"class.std::vector.19", %"class.std::vector.9" }
%"class.std::vector.19" = type { %"struct.std::_Vector_base.20" }
%"struct.std::_Vector_base.20" = type { %"struct.std::_Vector_base<std::function<void (command_t)>, std::allocator<std::function<void (command_t)>>>::_Vector_impl" }
%"struct.std::_Vector_base<std::function<void (command_t)>, std::allocator<std::function<void (command_t)>>>::_Vector_impl" = type { %"struct.std::_Vector_base<std::function<void (command_t)>, std::allocator<std::function<void (command_t)>>>::_Vector_impl_data" }
%"struct.std::_Vector_base<std::function<void (command_t)>, std::allocator<std::function<void (command_t)>>>::_Vector_impl_data" = type { ptr, ptr, ptr }
%class.syscall_t = type { %class.device_t, ptr, ptr, %"class.std::vector.24", %class.fds_t, %"class.std::vector.34", %"class.std::__cxx11::basic_string" }
%"class.std::vector.24" = type { %"struct.std::_Vector_base.25" }
%"struct.std::_Vector_base.25" = type { %"struct.std::_Vector_base<unsigned long (syscall_t::*)(unsigned long, unsigned long, unsigned long, unsigned long, unsigned long, unsigned long, unsigned long), std::allocator<unsigned long (syscall_t::*)(unsigned long, unsigned long, unsigned long, unsigned long, unsigned long, unsigned long, unsigned long)>>::_Vector_impl" }
%"struct.std::_Vector_base<unsigned long (syscall_t::*)(unsigned long, unsigned long, unsigned long, unsigned long, unsigned long, unsigned long, unsigned long), std::allocator<unsigned long (syscall_t::*)(unsigned long, unsigned long, unsigned long, unsigned long, unsigned long, unsigned long, unsigned long)>>::_Vector_impl" = type { %"struct.std::_Vector_base<unsigned long (syscall_t::*)(unsigned long, unsigned long, unsigned long, unsigned long, unsigned long, unsigned long, unsigned long), std::allocator<unsigned long (syscall_t::*)(unsigned long, unsigned long, unsigned long, unsigned long, unsigned long, unsigned long, unsigned long)>>::_Vector_impl_data" }
%"struct.std::_Vector_base<unsigned long (syscall_t::*)(unsigned long, unsigned long, unsigned long, unsigned long, unsigned long, unsigned long, unsigned long), std::allocator<unsigned long (syscall_t::*)(unsigned long, unsigned long, unsigned long, unsigned long, unsigned long, unsigned long, unsigned long)>>::_Vector_impl_data" = type { ptr, ptr, ptr }
%class.fds_t = type { %"class.std::vector.29" }
%"class.std::vector.29" = type { %"struct.std::_Vector_base.30" }
%"struct.std::_Vector_base.30" = type { %"struct.std::_Vector_base<int, std::allocator<int>>::_Vector_impl" }
%"struct.std::_Vector_base<int, std::allocator<int>>::_Vector_impl" = type { %"struct.std::_Vector_base<int, std::allocator<int>>::_Vector_impl_data" }
%"struct.std::_Vector_base<int, std::allocator<int>>::_Vector_impl_data" = type { ptr, ptr, ptr }
%"class.std::vector.34" = type { %"struct.std::_Vector_base.35" }
%"struct.std::_Vector_base.35" = type { %"struct.std::_Vector_base<unsigned long, std::allocator<unsigned long>>::_Vector_impl" }
%"struct.std::_Vector_base<unsigned long, std::allocator<unsigned long>>::_Vector_impl" = type { %"struct.std::_Vector_base<unsigned long, std::allocator<unsigned long>>::_Vector_impl_data" }
%"struct.std::_Vector_base<unsigned long, std::allocator<unsigned long>>::_Vector_impl_data" = type { ptr, ptr, ptr }
%class.bcd_t = type { %class.device_t, %"class.std::queue" }
%"class.std::queue" = type { %"class.std::deque" }
%"class.std::deque" = type { %"class.std::_Deque_base" }
%"class.std::_Deque_base" = type { %"struct.std::_Deque_base<command_t, std::allocator<command_t>>::_Deque_impl" }
%"struct.std::_Deque_base<command_t, std::allocator<command_t>>::_Deque_impl" = type { %"struct.std::_Deque_base<command_t, std::allocator<command_t>>::_Deque_impl_data" }
%"struct.std::_Deque_base<command_t, std::allocator<command_t>>::_Deque_impl_data" = type { ptr, i64, %"struct.std::_Deque_iterator", %"struct.std::_Deque_iterator" }
%"struct.std::_Deque_iterator" = type { ptr, ptr, ptr, ptr }
%"class.std::vector.14" = type { %"struct.std::_Vector_base.15" }
%"struct.std::_Vector_base.15" = type { %"struct.std::_Vector_base<device_t *, std::allocator<device_t *>>::_Vector_impl" }
%"struct.std::_Vector_base<device_t *, std::allocator<device_t *>>::_Vector_impl" = type { %"struct.std::_Vector_base<device_t *, std::allocator<device_t *>>::_Vector_impl_data" }
%"struct.std::_Vector_base<device_t *, std::allocator<device_t *>>::_Vector_impl_data" = type { ptr, ptr, ptr }
%"class.std::vector.9" = type { %"struct.std::_Vector_base.10" }
%"struct.std::_Vector_base.10" = type { %"struct.std::_Vector_base<std::__cxx11::basic_string<char>, std::allocator<std::__cxx11::basic_string<char>>>::_Vector_impl" }
%"struct.std::_Vector_base<std::__cxx11::basic_string<char>, std::allocator<std::__cxx11::basic_string<char>>>::_Vector_impl" = type { %"struct.std::_Vector_base<std::__cxx11::basic_string<char>, std::allocator<std::__cxx11::basic_string<char>>>::_Vector_impl_data" }
%"struct.std::_Vector_base<std::__cxx11::basic_string<char>, std::allocator<std::__cxx11::basic_string<char>>>::_Vector_impl_data" = type { ptr, ptr, ptr }
%"class.std::map" = type { %"class.std::_Rb_tree" }
%"class.std::_Rb_tree" = type { %"struct.std::_Rb_tree<unsigned long, std::pair<const unsigned long, std::__cxx11::basic_string<char>>, std::_Select1st<std::pair<const unsigned long, std::__cxx11::basic_string<char>>>, std::less<unsigned long>>::_Rb_tree_impl" }
%"struct.std::_Rb_tree<unsigned long, std::pair<const unsigned long, std::__cxx11::basic_string<char>>, std::_Select1st<std::pair<const unsigned long, std::__cxx11::basic_string<char>>>, std::less<unsigned long>>::_Rb_tree_impl" = type { %"struct.std::_Rb_tree_key_compare", %"struct.std::_Rb_tree_header" }
%"struct.std::_Rb_tree_key_compare" = type { %"struct.std::less" }
%"struct.std::less" = type { i8 }
%class.simif_t = type { ptr, ptr }
%class.isa_parser_t = type { i32, i64, %"class.std::bitset", %"class.std::__cxx11::basic_string", %"class.std::set" }
%"class.std::bitset" = type { %"struct.std::_Base_bitset" }
%"struct.std::_Base_bitset" = type { [3 x i64] }
%"class.std::set" = type { %"class.std::_Rb_tree.45" }
%"class.std::_Rb_tree.45" = type { %"struct.std::_Rb_tree<std::__cxx11::basic_string<char>, std::__cxx11::basic_string<char>, std::_Identity<std::__cxx11::basic_string<char>>, std::less<std::__cxx11::basic_string<char>>>::_Rb_tree_impl" }
%"struct.std::_Rb_tree<std::__cxx11::basic_string<char>, std::__cxx11::basic_string<char>, std::_Identity<std::__cxx11::basic_string<char>>, std::less<std::__cxx11::basic_string<char>>>::_Rb_tree_impl" = type { %"struct.std::_Rb_tree_key_compare.49", %"struct.std::_Rb_tree_header" }
%"struct.std::_Rb_tree_key_compare.49" = type { %"struct.std::less.50" }
%"struct.std::less.50" = type { i8 }
%"class.std::map.57" = type { %"class.std::_Rb_tree.58" }
%"class.std::_Rb_tree.58" = type { %"struct.std::_Rb_tree<unsigned long, std::pair<const unsigned long, processor_t *>, std::_Select1st<std::pair<const unsigned long, processor_t *>>, std::less<unsigned long>>::_Rb_tree_impl" }
%"struct.std::_Rb_tree<unsigned long, std::pair<const unsigned long, processor_t *>, std::_Select1st<std::pair<const unsigned long, processor_t *>>, std::less<unsigned long>>::_Rb_tree_impl" = type { %"struct.std::_Rb_tree_key_compare", %"struct.std::_Rb_tree_header" }
%"class.std::vector.62" = type { %"struct.std::_Vector_base.63" }
%"struct.std::_Vector_base.63" = type { %"struct.std::_Vector_base<std::shared_ptr<abstract_device_t>, std::allocator<std::shared_ptr<abstract_device_t>>>::_Vector_impl" }
%"struct.std::_Vector_base<std::shared_ptr<abstract_device_t>, std::allocator<std::shared_ptr<abstract_device_t>>>::_Vector_impl" = type { %"struct.std::_Vector_base<std::shared_ptr<abstract_device_t>, std::allocator<std::shared_ptr<abstract_device_t>>>::_Vector_impl_data" }
%"struct.std::_Vector_base<std::shared_ptr<abstract_device_t>, std::allocator<std::shared_ptr<abstract_device_t>>>::_Vector_impl_data" = type { ptr, ptr, ptr }
%class.bus_t = type { %class.abstract_device_t, %"class.std::map.70" }
%class.abstract_device_t = type { ptr }
%"class.std::map.70" = type { %"class.std::_Rb_tree.71" }
%"class.std::_Rb_tree.71" = type { %"struct.std::_Rb_tree<unsigned long, std::pair<const unsigned long, abstract_device_t *>, std::_Select1st<std::pair<const unsigned long, abstract_device_t *>>, std::less<unsigned long>>::_Rb_tree_impl" }
%"struct.std::_Rb_tree<unsigned long, std::pair<const unsigned long, abstract_device_t *>, std::_Select1st<std::pair<const unsigned long, abstract_device_t *>>, std::less<unsigned long>>::_Rb_tree_impl" = type { %"struct.std::_Rb_tree_key_compare", %"struct.std::_Rb_tree_header" }
%class.log_file_t = type { %"class.std::unique_ptr" }
%"class.std::unique_ptr" = type { %"struct.std::__uniq_ptr_data" }
%"struct.std::__uniq_ptr_data" = type { %"class.std::__uniq_ptr_impl" }
%"class.std::__uniq_ptr_impl" = type { %"class.std::tuple" }
%"class.std::tuple" = type { %"struct.std::_Tuple_impl" }
%"struct.std::_Tuple_impl" = type { %"struct.std::_Tuple_impl.75", %"struct.std::_Head_base.76" }
%"struct.std::_Tuple_impl.75" = type { %"struct.std::_Head_base" }
%"struct.std::_Head_base" = type { ptr }
%"struct.std::_Head_base.76" = type { ptr }
%"class.std::optional" = type { %"struct.std::_Optional_base" }
%"struct.std::_Optional_base" = type { %"struct.std::_Optional_payload" }
%"struct.std::_Optional_payload" = type { %"struct.std::_Optional_payload.base", [7 x i8] }
%"struct.std::_Optional_payload.base" = type { %"struct.std::_Optional_payload_base.base" }
%"struct.std::_Optional_payload_base.base" = type <{ %"union.std::_Optional_payload_base<std::function<void ()>>::_Storage", i8 }>
%"union.std::_Optional_payload_base<std::function<void ()>>::_Storage" = type { %"class.std::function" }
%"class.std::function" = type { %"class.std::_Function_base", ptr }
%"class.std::_Function_base" = type { %"union.std::_Any_data", ptr }
%"union.std::_Any_data" = type { %"union.std::_Nocopy_types" }
%"union.std::_Nocopy_types" = type { { i64, i64 } }
%class.debug_module_t = type <{ %class.abstract_device_t, %struct.debug_module_config_t, i32, i32, i32, i32, ptr, [4 x i8], [48 x i8], [4 x i8], ptr, [8 x i8], %"class.std::vector.79", [1024 x i8], %struct.dmcontrol_t, %struct.dmstatus_t, %struct.abstractcs_t, %struct.abstractauto_t, i32, i16, [2 x i8], %"class.std::vector.84", %struct.sbcs_t, [4 x i32], [4 x i32], i32, i32, i8, [3 x i8], i32, [2 x i8], [2 x i8], i32, i32, [4 x i8] }>
%struct.debug_module_config_t = type <{ i32, i32, i8, [3 x i8], i32, i8, i8, i8, i8, i8, [3 x i8] }>
%"class.std::vector.79" = type { %"struct.std::_Vector_base.80" }
%"struct.std::_Vector_base.80" = type { %"struct.std::_Vector_base<hart_debug_state_t, std::allocator<hart_debug_state_t>>::_Vector_impl" }
%"struct.std::_Vector_base<hart_debug_state_t, std::allocator<hart_debug_state_t>>::_Vector_impl" = type { %"struct.std::_Vector_base<hart_debug_state_t, std::allocator<hart_debug_state_t>>::_Vector_impl_data" }
%"struct.std::_Vector_base<hart_debug_state_t, std::allocator<hart_debug_state_t>>::_Vector_impl_data" = type { ptr, ptr, ptr }
%struct.dmcontrol_t = type { i8, i8, i8, i32, i8, i8, i8 }
%struct.dmstatus_t = type { i8, i8, i8, i8, i8, i8, i8, i8, i8, i8, i8, i8, i8, i8, i8, i8, i32 }
%struct.abstractcs_t = type { i8, i32, i32, i32 }
%struct.abstractauto_t = type { i32, i32 }
%"class.std::vector.84" = type { %"struct.std::_Bvector_base" }
%"struct.std::_Bvector_base" = type { %"struct.std::_Bvector_base<std::allocator<bool>>::_Bvector_impl" }
%"struct.std::_Bvector_base<std::allocator<bool>>::_Bvector_impl" = type { %"struct.std::_Bvector_base<std::allocator<bool>>::_Bvector_impl_data" }
%"struct.std::_Bvector_base<std::allocator<bool>>::_Bvector_impl_data" = type { %"struct.std::_Bit_iterator", %"struct.std::_Bit_iterator", ptr }
%"struct.std::_Bit_iterator" = type { %"struct.std::_Bit_iterator_base.base", [4 x i8] }
%"struct.std::_Bit_iterator_base.base" = type <{ ptr, i32 }>
%struct.sbcs_t = type { i32, i8, i32, i8, i8, i32, i32, i8, i8, i8, i8, i8, i8 }

; Function Attrs: mustprogress nounwind uwtable
define linkonce_odr noundef nonnull align 8 dereferenceable(8) ptr @_ZNSt6vectorIP11processor_tSaIS1_EEixEm(ptr noundef nonnull align 8 dereferenceable(24) %0, i64 noundef %1) #4 comdat align 2 {
  %3 = alloca ptr, align 8
  %4 = alloca i64, align 8
  store ptr %0, ptr %3, align 8
  store i64 %1, ptr %4, align 8
  %5 = load ptr, ptr %3, align 8
  %6 = getelementptr inbounds %"struct.std::_Vector_base.53", ptr %5, i32 0, i32 0
  %7 = getelementptr inbounds %"struct.std::_Vector_base<processor_t *, std::allocator<processor_t *>>::_Vector_impl_data", ptr %6, i32 0, i32 0
  %8 = load ptr, ptr %7, align 8
  %9 = load i64, ptr %4, align 8
  %10 = getelementptr inbounds ptr, ptr %8, i64 %9
  ret ptr %10
}

; Function Attrs: mustprogress nounwind uwtable
define linkonce_odr noundef i64 @_ZNKSt6vectorIP11processor_tSaIS1_EE4sizeEv(ptr noundef nonnull align 8 dereferenceable(24) %0) #4 comdat align 2 {
  %2 = alloca ptr, align 8
  store ptr %0, ptr %2, align 8
  %3 = load ptr, ptr %2, align 8
  %4 = getelementptr inbounds %"struct.std::_Vector_base.53", ptr %3, i32 0, i32 0
  %5 = getelementptr inbounds %"struct.std::_Vector_base<processor_t *, std::allocator<processor_t *>>::_Vector_impl_data", ptr %4, i32 0, i32 1
  %6 = load ptr, ptr %5, align 8
  %7 = getelementptr inbounds %"struct.std::_Vector_base.53", ptr %3, i32 0, i32 0
  %8 = getelementptr inbounds %"struct.std::_Vector_base<processor_t *, std::allocator<processor_t *>>::_Vector_impl_data", ptr %7, i32 0, i32 0
  %9 = load ptr, ptr %8, align 8
  %10 = ptrtoint ptr %6 to i64
  %11 = ptrtoint ptr %9 to i64
  %12 = sub i64 %10, %11
  %13 = sdiv exact i64 %12, 8
  ret i64 %13
}

; Function Attrs: mustprogress uwtable
define void @_ZN5sim_t13set_histogramEb(ptr noundef nonnull align 8 dereferenceable(2888) %0, i1 noundef zeroext %1) #5 align 2 {
  %3 = alloca ptr, align 8
  %4 = alloca i8, align 1
  %5 = alloca i64, align 8
  store ptr %0, ptr %3, align 8
  %6 = zext i1 %1 to i8
  store i8 %6, ptr %4, align 1
  %7 = load ptr, ptr %3, align 8
  %8 = load i8, ptr %4, align 1
  %9 = trunc i8 %8 to i1
  %10 = getelementptr inbounds %class.sim_t, ptr %7, i32 0, i32 22
  %11 = zext i1 %9 to i8
  store i8 %11, ptr %10, align 1
  store i64 0, ptr %5, align 8
  br label %12

12:                                               ; preds = %25, %2
  %13 = load i64, ptr %5, align 8
  %14 = getelementptr inbounds %class.sim_t, ptr %7, i32 0, i32 5
  %15 = call noundef i64 @_ZNKSt6vectorIP11processor_tSaIS1_EE4sizeEv(ptr noundef nonnull align 8 dereferenceable(24) %14) #3
  %16 = icmp ult i64 %13, %15
  br i1 %16, label %17, label %28

17:                                               ; preds = %12
  %18 = getelementptr inbounds %class.sim_t, ptr %7, i32 0, i32 5
  %19 = load i64, ptr %5, align 8
  %20 = call noundef nonnull align 8 dereferenceable(8) ptr @_ZNSt6vectorIP11processor_tSaIS1_EEixEm(ptr noundef nonnull align 8 dereferenceable(24) %18, i64 noundef %19) #3
  %21 = load ptr, ptr %20, align 8
  %22 = getelementptr inbounds %class.sim_t, ptr %7, i32 0, i32 22
  %23 = load i8, ptr %22, align 1
  %24 = trunc i8 %23 to i1
  call void @_ZN11processor_t13set_histogramEb(ptr noundef nonnull align 8 dereferenceable(659880) %21, i1 noundef zeroext %24)
  br label %25

25:                                               ; preds = %17
  %26 = load i64, ptr %5, align 8
  %27 = add i64 %26, 1
  store i64 %27, ptr %5, align 8
  br label %12, !llvm.loop !11

28:                                               ; preds = %12
  ret void
}