; Function Attrs: mustprogress uwtable
define void @_ZN5sim_t13set_histogramEb(ptr nocapture noundef nonnull align 8 dereferenceable(2888) %0, i1 noundef zeroext %1) local_unnamed_addr #6 align 2 {
  %3 = zext i1 %1 to i8
  %4 = getelementptr inbounds i8, ptr %0, i64 1457
  store i8 %3, ptr %4, align 1
  %5 = getelementptr inbounds i8, ptr %0, i64 864
  %6 = getelementptr inbounds i8, ptr %0, i64 872
  %7 = load ptr, ptr %6, align 8
  %8 = load ptr, ptr %5, align 8
  %.not = icmp eq ptr %7, %8
  br i1 %.not, label %._crit_edge, label %.lr.ph

.lr.ph:                                           ; preds = %2, %.lr.ph
  %9 = phi ptr [ %17, %.lr.ph ], [ %8, %2 ]
  %.04 = phi i64 [ %15, %.lr.ph ], [ 0, %2 ]
  %10 = getelementptr inbounds ptr, ptr %9, i64 %.04
  %11 = load ptr, ptr %10, align 8
  %12 = load i8, ptr %4, align 1
  %13 = and i8 %12, 1
  %14 = icmp ne i8 %13, 0
  tail call void @_ZN11processor_t13set_histogramEb(ptr noundef nonnull align 8 dereferenceable(659880) %11, i1 noundef zeroext %14)
  %15 = add nuw i64 %.04, 1
  %16 = load ptr, ptr %6, align 8
  %17 = load ptr, ptr %5, align 8
  %18 = ptrtoint ptr %16 to i64
  %19 = ptrtoint ptr %17 to i64
  %20 = sub i64 %18, %19
  %21 = ashr exact i64 %20, 3
  %22 = icmp ult i64 %15, %21
  br i1 %22, label %.lr.ph, label %._crit_edge, !llvm.loop !20

._crit_edge:                                      ; preds = %.lr.ph, %2
  ret void
}